target datalayout = "e-m:e-p270:32:32-p271:32:32-p272:64:64-i64:64-i128:128-f80:128-n8:16:32:64-S128"
target triple = "x86_64-pc-linux-gnu"

%struct._zend_array = type { %struct._zend_refcounted_h, %union.anon.4, i32, %union.anon.6, i32, i32, i32, i32, i64, ptr }
%struct._zend_refcounted_h = type { i32, %union.anon.3 }
%union.anon.3 = type { i32 }
%union.anon.4 = type { i32 }
%union.anon.6 = type { ptr }
%struct.stat = type { i64, i64, i64, i32, i32, i32, i32, i64, i64, i64, i64, %struct.timespec, %struct.timespec, %struct.timespec, [3 x i64] }
%struct.timespec = type { i64, i64 }
%struct.php_cli_server_client = type { ptr, i32, ptr, i32, ptr, %struct.php_http_parser, i8, ptr, ptr, i32, i64, %struct.php_cli_server_request, i8, %struct.php_cli_server_content_sender, i32 }
%struct.php_http_parser = type { i8, i8, i8, i8, i32, i64, i16, i16, i16, i8, i8, ptr }
%struct.php_cli_server_request = type { i32, i32, ptr, ptr, i64, ptr, i64, ptr, i64, ptr, i64, %struct._zend_array, %struct._zend_array, ptr, i64, ptr, i64, %struct.stat }
%struct.php_cli_server_content_sender = type { %struct.php_cli_server_buffer }
%struct.php_cli_server_buffer = type { ptr, ptr }

@zend_empty_string = external global ptr, align 8

; Function Attrs: nounwind uwtable
define internal i32 @php_cli_server_client_read_request_on_headers_complete(ptr noundef %0) #0 {
  %2 = alloca ptr, align 8
  %3 = alloca ptr, align 8
  store ptr %0, ptr %2, align 8, !tbaa !236
  call void @llvm.lifetime.start.p0(i64 8, ptr %3) #20
  %4 = load ptr, ptr %2, align 8, !tbaa !236
  %5 = getelementptr inbounds nuw %struct.php_http_parser, ptr %4, i32 0, i32 11
  %6 = load ptr, ptr %5, align 8, !tbaa !238
  store ptr %6, ptr %3, align 8, !tbaa !60
  %7 = load ptr, ptr %3, align 8, !tbaa !60
  %8 = getelementptr inbounds nuw %struct.php_cli_server_client, ptr %7, i32 0, i32 9
  %9 = load i32, ptr %8, align 8, !tbaa !217
  switch i32 %9, label %16 [
    i32 0, label %16
    i32 1, label %10
    i32 2, label %14
  ]

10:                                               ; preds = %1
  %11 = load ptr, ptr @zend_empty_string, align 8, !tbaa !104
  %12 = load ptr, ptr %3, align 8, !tbaa !60
  %13 = getelementptr inbounds nuw %struct.php_cli_server_client, ptr %12, i32 0, i32 8
  store ptr %11, ptr %13, align 8, !tbaa !219
  br label %14

14:                                               ; preds = %1, %10
  %15 = load ptr, ptr %3, align 8, !tbaa !60
  call void @php_cli_server_client_save_header(ptr noundef %15)
  br label %16

16:                                               ; preds = %1, %14, %1
  %17 = load ptr, ptr %3, align 8, !tbaa !60
  %18 = getelementptr inbounds nuw %struct.php_cli_server_client, ptr %17, i32 0, i32 9
  store i32 0, ptr %18, align 8, !tbaa !217
  call void @llvm.lifetime.end.p0(i64 8, ptr %3) #20
  ret i32 0
}