; Function Attrs: nounwind uwtable
define internal noundef i32 @php_cli_server_client_read_request_on_headers_complete(ptr noundef readonly captures(none) %0) #0 {
  %2 = getelementptr inbounds nuw i8, ptr %0, i64 24
  %3 = load ptr, ptr %2, align 8, !tbaa !206
  %4 = getelementptr inbounds nuw i8, ptr %3, i64 96
  %5 = load i32, ptr %4, align 8, !tbaa !209
  switch i32 %5, label %10 [
    i32 2, label %9
    i32 1, label %6
  ]

6:                                                ; preds = %1
  %7 = load ptr, ptr @zend_empty_string, align 8, !tbaa !103
  %8 = getelementptr inbounds nuw i8, ptr %3, i64 88
  store ptr %7, ptr %8, align 8, !tbaa !211
  br label %9

9:                                                ; preds = %1, %6
  tail call fastcc void @php_cli_server_client_save_header(ptr noundef nonnull %3)
  br label %10

10:                                               ; preds = %9, %1
  store i32 0, ptr %4, align 8, !tbaa !209
  ret i32 0
}